(lp1
(lp2
I11
aI0
aI0
aI0
aa(lp3
I3
aI0
aI0
aI0
aa(lp4
I4
aI0
aI0
aI0
aa(lp5
I6
aI0
aI0
aI0
aa(lp6
I4
aI0
aI0
aI0
aa(lp7
I5
aI0
aI0
aI0
aa(lp8
I4
aI0
aI0
aI0
aa(lp9
I5
aI0
aI0
aI0
aa(lp10
I2
aI0
aI0
aI0
aa(lp11
I2
aI0
aI0
aI0
aa(lp12
I4
aI0
aI0
aI0
aa(lp13
I8
aI0
aI0
aI0
aa(lp14
I0
aI0
aI0
aI0
aa(lp15
I3
aI0
aI0
aI0
aa(lp16
I2
aI0
aI0
aI0
aa(lp17
I5
aI0
aI0
aI0
aa(lp18
I2
aI0
aI0
aI0
aa(lp19
I5
aI0
aI0
aI0
aa(lp20
I7
aI0
aI0
aI0
aa(lp21
I3
aI0
aI0
aI0
aa(lp22
I3
aI0
aI0
aI0
aa(lp23
I2
aI0
aI0
aI0
aa(lp24
I4
aI0
aI0
aI0
aa(lp25
I2
aI0
aI0
aI0
aa(lp26
I5
aI0
aI0
aI0
aa(lp27
I5
aI0
aI0
aI0
aa(lp28
I1
aI0
aI0
aI0
aa(lp29
I2
aI0
aI0
aI0
aa(lp30
I9
aI0
aI0
aI0
aa(lp31
I7
aI0
aI0
aI0
aa(lp32
I8
aI0
aI0
aI0
aa(lp33
I2
aI0
aI0
aI0
aa(lp34
I1
aI0
aI0
aI0
aa(lp35
I8
aI0
aI0
aI0
aa(lp36
I8
aI0
aI0
aI0
aa(lp37
I5
aI0
aI0
aI0
aa(lp38
I7
aI0
aI0
aI0
aa(lp39
I5
aI0
aI0
aI0
aa(lp40
I6
aI0
aI0
aI0
aa(lp41
I5
aI0
aI0
aI0
aa(lp42
I16
aI0
aI0
aI0
aa(lp43
I3
aI0
aI0
aI0
aa(lp44
I2
aI0
aI0
aI0
aa(lp45
I5
aI0
aI0
aI0
aa(lp46
I0
aI0
aI0
aI0
aa(lp47
I0
aI0
aI0
aI0
aa(lp48
I0
aI0
aI0
aI0
aa(lp49
I0
aI0
aI0
aI0
aa(lp50
I0
aI0
aI0
aI0
aa(lp51
I0
aI0
aI0
aI0
aa.