(lp1
(lp2
I6
aI0
aI0
aI0
aa(lp3
I3
aI0
aI0
aI0
aa(lp4
I5
aI0
aI0
aI0
aa(lp5
I1
aI0
aI0
aI0
aa(lp6
I3
aI0
aI0
aI0
aa(lp7
I0
aI0
aI0
aI0
aa(lp8
I2
aI0
aI0
aI0
aa(lp9
I1
aI0
aI0
aI0
aa(lp10
I2
aI0
aI0
aI0
aa(lp11
I2
aI0
aI0
aI0
aa(lp12
I2
aI0
aI0
aI0
aa(lp13
I0
aI0
aI0
aI0
aa(lp14
I4
aI0
aI0
aI0
aa(lp15
I9
aI0
aI0
aI0
aa(lp16
I2
aI0
aI0
aI0
aa(lp17
I1
aI0
aI0
aI0
aa(lp18
I1
aI0
aI0
aI0
aa(lp19
I1
aI0
aI0
aI0
aa(lp20
I3
aI0
aI0
aI0
aa(lp21
I1
aI0
aI0
aI0
aa(lp22
I3
aI0
aI0
aI0
aa(lp23
I2
aI0
aI0
aI0
aa(lp24
I10
aI0
aI0
aI0
aa(lp25
I2
aI0
aI0
aI0
aa(lp26
I6
aI0
aI0
aI0
aa(lp27
I3
aI0
aI0
aI0
aa(lp28
I2
aI0
aI0
aI0
aa(lp29
I1
aI0
aI0
aI0
aa(lp30
I2
aI0
aI0
aI0
aa(lp31
I1
aI0
aI0
aI0
aa(lp32
I2
aI0
aI0
aI0
aa(lp33
I3
aI0
aI0
aI0
aa(lp34
I2
aI0
aI0
aI0
aa(lp35
I1
aI0
aI0
aI0
aa(lp36
I1
aI0
aI0
aI0
aa(lp37
I3
aI0
aI0
aI0
aa(lp38
I3
aI0
aI0
aI0
aa(lp39
I2
aI0
aI0
aI0
aa(lp40
I4
aI0
aI0
aI0
aa(lp41
I0
aI0
aI0
aI0
aa(lp42
I3
aI0
aI0
aI0
aa(lp43
I3
aI0
aI0
aI0
aa(lp44
I2
aI0
aI0
aI0
aa(lp45
I3
aI0
aI0
aI0
aa(lp46
I2
aI0
aI0
aI0
aa(lp47
I1
aI0
aI0
aI0
aa(lp48
I2
aI0
aI0
aI0
aa(lp49
I2
aI0
aI0
aI0
aa(lp50
I11
aI0
aI0
aI0
aa(lp51
I3
aI0
aI0
aI0
aa(lp52
I4
aI0
aI0
aI0
aa(lp53
I3
aI0
aI0
aI0
aa(lp54
I15
aI0
aI0
aI0
aa(lp55
I2
aI0
aI0
aI0
aa(lp56
I2
aI0
aI0
aI0
aa(lp57
I7
aI0
aI0
aI0
aa(lp58
I1
aI0
aI0
aI0
aa(lp59
I3
aI0
aI0
aI0
aa(lp60
I5
aI0
aI0
aI0
aa(lp61
I2
aI0
aI0
aI0
aa(lp62
I5
aI0
aI0
aI0
aa(lp63
I1
aI0
aI0
aI0
aa(lp64
I7
aI0
aI0
aI0
aa(lp65
I7
aI0
aI0
aI0
aa(lp66
I2
aI0
aI0
aI0
aa(lp67
I9
aI0
aI0
aI0
aa(lp68
I1
aI0
aI0
aI0
aa(lp69
I2
aI0
aI0
aI0
aa(lp70
I1
aI0
aI0
aI0
aa(lp71
I1
aI0
aI0
aI0
aa(lp72
I6
aI0
aI0
aI0
aa(lp73
I8
aI0
aI0
aI0
aa(lp74
I4
aI0
aI0
aI0
aa(lp75
I10
aI0
aI0
aI0
aa(lp76
I6
aI0
aI0
aI0
aa(lp77
I13
aI0
aI0
aI0
aa(lp78
I3
aI0
aI0
aI0
aa(lp79
I8
aI0
aI0
aI0
aa(lp80
I4
aI0
aI0
aI0
aa(lp81
I3
aI0
aI0
aI0
aa(lp82
I3
aI0
aI0
aI0
aa(lp83
I8
aI0
aI0
aI0
aa(lp84
I6
aI0
aI0
aI0
aa(lp85
I2
aI0
aI0
aI0
aa(lp86
I8
aI0
aI0
aI0
aa(lp87
I2
aI0
aI0
aI0
aa(lp88
I6
aI0
aI0
aI0
aa(lp89
I15
aI0
aI0
aI0
aa(lp90
I8
aI0
aI0
aI0
aa(lp91
I10
aI0
aI0
aI0
aa(lp92
I7
aI0
aI0
aI0
aa(lp93
I6
aI0
aI0
aI0
aa(lp94
I1
aI0
aI0
aI0
aa(lp95
I1
aI0
aI0
aI0
aa(lp96
I9
aI0
aI0
aI0
aa(lp97
I2
aI0
aI0
aI0
aa(lp98
I6
aI0
aI0
aI0
aa(lp99
I8
aI0
aI0
aI0
aa(lp100
I15
aI0
aI0
aI0
aa(lp101
I6
aI0
aI0
aI0
aa(lp102
I4
aI0
aI0
aI0
aa(lp103
I9
aI0
aI0
aI0
aa(lp104
I9
aI0
aI0
aI0
aa(lp105
I10
aI0
aI0
aI0
aa(lp106
I5
aI0
aI0
aI0
aa(lp107
I9
aI0
aI0
aI0
aa(lp108
I6
aI0
aI0
aI0
aa(lp109
I11
aI0
aI0
aI0
aa(lp110
I6
aI0
aI0
aI0
aa(lp111
I9
aI0
aI0
aI0
aa(lp112
I15
aI0
aI0
aI0
aa(lp113
I11
aI0
aI0
aI0
aa(lp114
I12
aI0
aI0
aI0
aa(lp115
I16
aI0
aI0
aI0
aa(lp116
I10
aI0
aI0
aI0
aa(lp117
I16
aI0
aI0
aI0
aa(lp118
I6
aI0
aI0
aI0
aa(lp119
I12
aI0
aI0
aI0
aa(lp120
I5
aI0
aI0
aI0
aa(lp121
I1
aI0
aI0
aI0
aa(lp122
I2
aI0
aI0
aI0
aa(lp123
I13
aI0
aI0
aI0
aa(lp124
I11
aI0
aI0
aI0
aa(lp125
I4
aI0
aI0
aI0
aa(lp126
I13
aI0
aI0
aI0
aa(lp127
I12
aI0
aI0
aI0
aa(lp128
I6
aI0
aI0
aI0
aa(lp129
I5
aI0
aI0
aI0
aa(lp130
I10
aI0
aI0
aI0
aa(lp131
I4
aI0
aI0
aI0
aa(lp132
I12
aI0
aI0
aI0
aa(lp133
I6
aI0
aI0
aI0
aa(lp134
I3
aI0
aI0
aI0
aa(lp135
I6
aI0
aI0
aI0
aa(lp136
I14
aI0
aI0
aI0
aa(lp137
I19
aI0
aI0
aI0
aa(lp138
I15
aI0
aI0
aI0
aa(lp139
I6
aI0
aI0
aI0
aa(lp140
I11
aI0
aI0
aI0
aa(lp141
I12
aI0
aI0
aI0
aa(lp142
I12
aI0
aI0
aI0
aa(lp143
I2
aI0
aI0
aI0
aa(lp144
I1
aI0
aI0
aI0
aa(lp145
I4
aI0
aI0
aI0
aa(lp146
I2
aI0
aI0
aI0
aa(lp147
I1
aI0
aI0
aI0
aa(lp148
I1
aI0
aI0
aI0
aa(lp149
I3
aI0
aI0
aI0
aa(lp150
I2
aI0
aI0
aI0
aa(lp151
I5
aI0
aI0
aI0
aa(lp152
I2
aI0
aI0
aI0
aa(lp153
I2
aI0
aI0
aI0
aa(lp154
I5
aI0
aI0
aI0
aa(lp155
I1
aI0
aI0
aI0
aa(lp156
I1
aI0
aI0
aI0
aa(lp157
I7
aI0
aI0
aI0
aa(lp158
I3
aI0
aI0
aI0
aa(lp159
I3
aI0
aI0
aI0
aa(lp160
I4
aI0
aI0
aI0
aa(lp161
I27
aI0
aI0
aI0
aa(lp162
I6
aI0
aI0
aI0
aa(lp163
I10
aI0
aI0
aI0
aa(lp164
I21
aI0
aI0
aI0
aa(lp165
I10
aI0
aI0
aI0
aa(lp166
I12
aI0
aI0
aI0
aa(lp167
I3
aI0
aI0
aI0
aa(lp168
I26
aI0
aI0
aI0
aa(lp169
I47
aI0
aI0
aI0
aa(lp170
I4
aI0
aI0
aI0
aa(lp171
I11
aI0
aI0
aI0
aa(lp172
I24
aI0
aI0
aI0
aa(lp173
I18
aI0
aI0
aI0
aa(lp174
I14
aI0
aI0
aI0
aa(lp175
I16
aI0
aI0
aI0
aa(lp176
I16
aI0
aI0
aI0
aa(lp177
I8
aI0
aI0
aI0
aa(lp178
I8
aI0
aI0
aI0
aa(lp179
I8
aI0
aI0
aI0
aa(lp180
I2
aI0
aI0
aI0
aa(lp181
I10
aI0
aI0
aI0
aa(lp182
I12
aI0
aI0
aI0
aa(lp183
I13
aI0
aI0
aI0
aa(lp184
I5
aI0
aI0
aI0
aa(lp185
I11
aI0
aI0
aI0
aa(lp186
I4
aI0
aI0
aI0
aa(lp187
I1
aI0
aI0
aI0
aa(lp188
I6
aI0
aI0
aI0
aa(lp189
I6
aI0
aI0
aI0
aa(lp190
I6
aI0
aI0
aI0
aa(lp191
I8
aI0
aI0
aI0
aa(lp192
I4
aI0
aI0
aI0
aa(lp193
I3
aI0
aI0
aI0
aa(lp194
I10
aI0
aI0
aI0
aa(lp195
I3
aI0
aI0
aI0
aa(lp196
I13
aI0
aI0
aI0
aa(lp197
I4
aI0
aI0
aI0
aa(lp198
I2
aI0
aI0
aI0
aa(lp199
I2
aI0
aI0
aI0
aa(lp200
I7
aI0
aI0
aI0
aa(lp201
I2
aI0
aI0
aI0
aa(lp202
I9
aI0
aI0
aI0
aa(lp203
I4
aI0
aI0
aI0
aa(lp204
I10
aI0
aI0
aI0
aa(lp205
I9
aI0
aI0
aI0
aa(lp206
I5
aI0
aI0
aI0
aa(lp207
I12
aI0
aI0
aI0
aa(lp208
I2
aI0
aI0
aI0
aa(lp209
I3
aI0
aI0
aI0
aa(lp210
I7
aI0
aI0
aI0
aa(lp211
I2
aI0
aI0
aI0
aa(lp212
I9
aI0
aI0
aI0
aa(lp213
I1
aI0
aI0
aI0
aa(lp214
I6
aI0
aI0
aI0
aa(lp215
I7
aI0
aI0
aI0
aa(lp216
I3
aI0
aI0
aI0
aa(lp217
I4
aI0
aI0
aI0
aa(lp218
I2
aI0
aI0
aI0
aa(lp219
I8
aI0
aI0
aI0
aa(lp220
I1
aI0
aI0
aI0
aa(lp221
I6
aI0
aI0
aI0
aa(lp222
I4
aI0
aI0
aI0
aa(lp223
I1
aI0
aI0
aI0
aa(lp224
I7
aI0
aI0
aI0
aa(lp225
I2
aI0
aI0
aI0
aa(lp226
I4
aI0
aI0
aI0
aa(lp227
I2
aI0
aI0
aI0
aa(lp228
I3
aI0
aI0
aI0
aa(lp229
I1
aI0
aI0
aI0
aa(lp230
I0
aI0
aI0
aI0
aa(lp231
I1
aI0
aI0
aI0
aa(lp232
I12
aI0
aI0
aI0
aa(lp233
I6
aI0
aI0
aI0
aa(lp234
I8
aI0
aI0
aI0
aa(lp235
I4
aI0
aI0
aI0
aa(lp236
I9
aI0
aI0
aI0
aa(lp237
I5
aI0
aI0
aI0
aa(lp238
I10
aI0
aI0
aI0
aa(lp239
I3
aI0
aI0
aI0
aa(lp240
I7
aI0
aI0
aI0
aa(lp241
I2
aI0
aI0
aI0
aa(lp242
I4
aI0
aI0
aI0
aa(lp243
I5
aI0
aI0
aI0
aa(lp244
I6
aI0
aI0
aI0
aa(lp245
I7
aI0
aI0
aI0
aa(lp246
I9
aI0
aI0
aI0
aa(lp247
I1
aI0
aI0
aI0
aa(lp248
I6
aI0
aI0
aI0
aa(lp249
I7
aI0
aI0
aI0
aa(lp250
I5
aI0
aI0
aI0
aa(lp251
I0
aI0
aI0
aI0
aa(lp252
I1
aI0
aI0
aI0
aa(lp253
I3
aI0
aI0
aI0
aa(lp254
I1
aI0
aI0
aI0
aa(lp255
I2
aI0
aI0
aI0
aa(lp256
I0
aI0
aI0
aI0
aa(lp257
I0
aI0
aI0
aI0
aa(lp258
I7
aI0
aI0
aI0
aa(lp259
I0
aI0
aI0
aI0
aa(lp260
I2
aI0
aI0
aI0
aa(lp261
I2
aI0
aI0
aI0
aa(lp262
I1
aI0
aI0
aI0
aa(lp263
I4
aI0
aI0
aI0
aa(lp264
I9
aI0
aI0
aI0
aa(lp265
I5
aI0
aI0
aI0
aa(lp266
I3
aI0
aI0
aI0
aa(lp267
I5
aI0
aI0
aI0
aa(lp268
I2
aI0
aI0
aI0
aa(lp269
I5
aI0
aI0
aI0
aa(lp270
I7
aI0
aI0
aI0
aa(lp271
I3
aI0
aI0
aI0
aa(lp272
I3
aI0
aI0
aI0
aa(lp273
I1
aI0
aI0
aI0
aa(lp274
I3
aI0
aI0
aI0
aa(lp275
I4
aI0
aI0
aI0
aa(lp276
I2
aI0
aI0
aI0
aa(lp277
I2
aI0
aI0
aI0
aa(lp278
I7
aI0
aI0
aI0
aa(lp279
I4
aI0
aI0
aI0
aa(lp280
I7
aI0
aI0
aI0
aa(lp281
I2
aI0
aI0
aI0
aa(lp282
I4
aI0
aI0
aI0
aa(lp283
I3
aI0
aI0
aI0
aa(lp284
I9
aI0
aI0
aI0
aa(lp285
I3
aI0
aI0
aI0
aa(lp286
I1
aI0
aI0
aI0
aa(lp287
I6
aI0
aI0
aI0
aa(lp288
I3
aI0
aI0
aI0
aa(lp289
I3
aI0
aI0
aI0
aa(lp290
I2
aI0
aI0
aI0
aa(lp291
I11
aI0
aI0
aI0
aa(lp292
I3
aI0
aI0
aI0
aa(lp293
I2
aI0
aI0
aI0
aa(lp294
I4
aI0
aI0
aI0
aa(lp295
I2
aI0
aI0
aI0
aa(lp296
I4
aI0
aI0
aI0
aa(lp297
I3
aI0
aI0
aI0
aa(lp298
I4
aI0
aI0
aI0
aa(lp299
I1
aI0
aI0
aI0
aa(lp300
I4
aI0
aI0
aI0
aa(lp301
I7
aI0
aI0
aI0
aa(lp302
I4
aI0
aI0
aI0
aa(lp303
I1
aI0
aI0
aI0
aa(lp304
I3
aI0
aI0
aI0
aa(lp305
I4
aI0
aI0
aI0
aa(lp306
I1
aI0
aI0
aI0
aa(lp307
I2
aI0
aI0
aI0
aa(lp308
I1
aI0
aI0
aI0
aa(lp309
I1
aI0
aI0
aI0
aa(lp310
I1
aI0
aI0
aI0
aa(lp311
I5
aI0
aI0
aI0
aa(lp312
I1
aI0
aI0
aI0
aa(lp313
I3
aI0
aI0
aI0
aa(lp314
I1
aI0
aI0
aI0
aa(lp315
I9
aI0
aI0
aI0
aa(lp316
I2
aI0
aI0
aI0
aa(lp317
I1
aI0
aI0
aI0
aa(lp318
I8
aI0
aI0
aI0
aa(lp319
I5
aI0
aI0
aI0
aa(lp320
I4
aI0
aI0
aI0
aa(lp321
I0
aI0
aI0
aI0
aa(lp322
I1
aI0
aI0
aI0
aa(lp323
I5
aI0
aI0
aI0
aa(lp324
I1
aI0
aI0
aI0
aa(lp325
I1
aI0
aI0
aI0
aa(lp326
I3
aI0
aI0
aI0
aa(lp327
I18
aI0
aI0
aI0
aa(lp328
I1
aI0
aI0
aI0
aa(lp329
I4
aI0
aI0
aI0
aa(lp330
I2
aI0
aI0
aI0
aa(lp331
I3
aI0
aI0
aI0
aa(lp332
I1
aI0
aI0
aI0
aa(lp333
I2
aI0
aI0
aI0
aa(lp334
I1
aI0
aI0
aI0
aa(lp335
I2
aI0
aI0
aI0
aa(lp336
I1
aI0
aI0
aI0
aa(lp337
I0
aI0
aI0
aI0
aa(lp338
I4
aI0
aI0
aI0
aa(lp339
I1
aI0
aI0
aI0
aa(lp340
I10
aI0
aI0
aI0
aa(lp341
I0
aI0
aI0
aI0
aa(lp342
I3
aI0
aI0
aI0
aa(lp343
I8
aI0
aI0
aI0
aa(lp344
I4
aI0
aI0
aI0
aa(lp345
I3
aI0
aI0
aI0
aa(lp346
I2
aI0
aI0
aI0
aa(lp347
I7
aI0
aI0
aI0
aa(lp348
I4
aI0
aI0
aI0
aa(lp349
I2
aI0
aI0
aI0
aa(lp350
I9
aI0
aI0
aI0
aa(lp351
I1
aI0
aI0
aI0
aa(lp352
I2
aI0
aI0
aI0
aa(lp353
I2
aI0
aI0
aI0
aa(lp354
I7
aI0
aI0
aI0
aa(lp355
I4
aI0
aI0
aI0
aa(lp356
I1
aI0
aI0
aI0
aa(lp357
I4
aI0
aI0
aI0
aa(lp358
I4
aI0
aI0
aI0
aa(lp359
I3
aI0
aI0
aI0
aa(lp360
I1
aI0
aI0
aI0
aa(lp361
I6
aI0
aI0
aI0
aa(lp362
I5
aI0
aI0
aI0
aa(lp363
I4
aI0
aI0
aI0
aa(lp364
I2
aI0
aI0
aI0
aa(lp365
I1
aI0
aI0
aI0
aa(lp366
I5
aI0
aI0
aI0
aa(lp367
I7
aI0
aI0
aI0
aa(lp368
I7
aI0
aI0
aI0
aa(lp369
I3
aI0
aI0
aI0
aa(lp370
I3
aI0
aI0
aI0
aa(lp371
I0
aI0
aI0
aI0
aa(lp372
I2
aI0
aI0
aI0
aa(lp373
I1
aI0
aI0
aI0
aa(lp374
I1
aI0
aI0
aI0
aa(lp375
I4
aI0
aI0
aI0
aa(lp376
I1
aI0
aI0
aI0
aa(lp377
I5
aI0
aI0
aI0
aa(lp378
I13
aI0
aI0
aI0
aa(lp379
I1
aI0
aI0
aI0
aa(lp380
I8
aI0
aI0
aI0
aa(lp381
I4
aI0
aI0
aI0
aa(lp382
I1
aI0
aI0
aI0
aa(lp383
I4
aI0
aI0
aI0
aa(lp384
I1
aI0
aI0
aI0
aa(lp385
I1
aI0
aI0
aI0
aa(lp386
I1
aI0
aI0
aI0
aa(lp387
I3
aI0
aI0
aI0
aa(lp388
I0
aI0
aI0
aI0
aa(lp389
I2
aI0
aI0
aI0
aa(lp390
I2
aI0
aI0
aI0
aa(lp391
I11
aI0
aI0
aI0
aa(lp392
I10
aI0
aI0
aI0
aa(lp393
I10
aI0
aI0
aI0
aa(lp394
I2
aI0
aI0
aI0
aa(lp395
I5
aI0
aI0
aI0
aa(lp396
I2
aI0
aI0
aI0
aa(lp397
I3
aI0
aI0
aI0
aa(lp398
I6
aI0
aI0
aI0
aa(lp399
I4
aI0
aI0
aI0
aa(lp400
I4
aI0
aI0
aI0
aa(lp401
I5
aI0
aI0
aI0
aa(lp402
I1
aI0
aI0
aI0
aa(lp403
I6
aI0
aI0
aI0
aa(lp404
I2
aI0
aI0
aI0
aa(lp405
I7
aI0
aI0
aI0
aa(lp406
I5
aI0
aI0
aI0
aa(lp407
I1
aI0
aI0
aI0
aa(lp408
I5
aI0
aI0
aI0
aa(lp409
I3
aI0
aI0
aI0
aa(lp410
I1
aI0
aI0
aI0
aa(lp411
I1
aI0
aI0
aI0
aa(lp412
I2
aI0
aI0
aI0
aa(lp413
I2
aI0
aI0
aI0
aa(lp414
I3
aI0
aI0
aI0
aa(lp415
I0
aI0
aI0
aI0
aa(lp416
I4
aI0
aI0
aI0
aa(lp417
I3
aI0
aI0
aI0
aa(lp418
I5
aI0
aI0
aI0
aa(lp419
I2
aI0
aI0
aI0
aa(lp420
I5
aI0
aI0
aI0
aa(lp421
I4
aI0
aI0
aI0
aa(lp422
I3
aI0
aI0
aI0
aa(lp423
I1
aI0
aI0
aI0
aa(lp424
I2
aI0
aI0
aI0
aa(lp425
I4
aI0
aI0
aI0
aa(lp426
I3
aI0
aI0
aI0
aa(lp427
I8
aI0
aI0
aI0
aa(lp428
I4
aI0
aI0
aI0
aa(lp429
I8
aI0
aI0
aI0
aa(lp430
I5
aI0
aI0
aI0
aa(lp431
I7
aI0
aI0
aI0
aa(lp432
I4
aI0
aI0
aI0
aa(lp433
I10
aI0
aI0
aI0
aa(lp434
I3
aI0
aI0
aI0
aa(lp435
I9
aI0
aI0
aI0
aa(lp436
I5
aI0
aI0
aI0
aa(lp437
I4
aI0
aI0
aI0
aa(lp438
I3
aI0
aI0
aI0
aa(lp439
I5
aI0
aI0
aI0
aa(lp440
I6
aI0
aI0
aI0
aa(lp441
I7
aI0
aI0
aI0
aa(lp442
I7
aI0
aI0
aI0
aa(lp443
I5
aI0
aI0
aI0
aa(lp444
I7
aI0
aI0
aI0
aa(lp445
I10
aI0
aI0
aI0
aa(lp446
I3
aI0
aI0
aI0
aa(lp447
I2
aI0
aI0
aI0
aa(lp448
I5
aI0
aI0
aI0
aa(lp449
I5
aI0
aI0
aI0
aa(lp450
I5
aI0
aI0
aI0
aa(lp451
I3
aI0
aI0
aI0
aa(lp452
I4
aI0
aI0
aI0
aa(lp453
I3
aI0
aI0
aI0
aa(lp454
I2
aI0
aI0
aI0
aa(lp455
I5
aI0
aI0
aI0
aa(lp456
I3
aI0
aI0
aI0
aa(lp457
I4
aI0
aI0
aI0
aa(lp458
I5
aI0
aI0
aI0
aa(lp459
I5
aI0
aI0
aI0
aa(lp460
I5
aI0
aI0
aI0
aa(lp461
I1
aI0
aI0
aI0
aa(lp462
I9
aI0
aI0
aI0
aa(lp463
I3
aI0
aI0
aI0
aa(lp464
I2
aI0
aI0
aI0
aa(lp465
I4
aI0
aI0
aI0
aa(lp466
I7
aI0
aI0
aI0
aa(lp467
I2
aI0
aI0
aI0
aa(lp468
I4
aI0
aI0
aI0
aa(lp469
I4
aI0
aI0
aI0
aa(lp470
I2
aI0
aI0
aI0
aa(lp471
I3
aI0
aI0
aI0
aa(lp472
I1
aI0
aI0
aI0
aa(lp473
I3
aI0
aI0
aI0
aa(lp474
I4
aI0
aI0
aI0
aa(lp475
I2
aI0
aI0
aI0
aa(lp476
I4
aI0
aI0
aI0
aa(lp477
I3
aI0
aI0
aI0
aa(lp478
I5
aI0
aI0
aI0
aa(lp479
I4
aI0
aI0
aI0
aa(lp480
I6
aI0
aI0
aI0
aa(lp481
I6
aI0
aI0
aI0
aa(lp482
I2
aI0
aI0
aI0
aa(lp483
I2
aI0
aI0
aI0
aa(lp484
I2
aI0
aI0
aI0
aa(lp485
I2
aI0
aI0
aI0
aa(lp486
I0
aI0
aI0
aI0
aa(lp487
I3
aI0
aI0
aI0
aa(lp488
I2
aI0
aI0
aI0
aa(lp489
I1
aI0
aI0
aI0
aa(lp490
I6
aI0
aI0
aI0
aa(lp491
I1
aI0
aI0
aI0
aa(lp492
I3
aI0
aI0
aI0
aa(lp493
I2
aI0
aI0
aI0
aa(lp494
I5
aI0
aI0
aI0
aa(lp495
I2
aI0
aI0
aI0
aa(lp496
I1
aI0
aI0
aI0
aa(lp497
I3
aI0
aI0
aI0
aa(lp498
I1
aI0
aI0
aI0
aa(lp499
I3
aI0
aI0
aI0
aa(lp500
I4
aI0
aI0
aI0
aa(lp501
I1
aI0
aI0
aI0
aa(lp502
I3
aI0
aI0
aI0
aa(lp503
I3
aI0
aI0
aI0
aa(lp504
I1
aI0
aI0
aI0
aa(lp505
I4
aI0
aI0
aI0
aa(lp506
I1
aI0
aI0
aI0
aa(lp507
I1
aI0
aI0
aI0
aa(lp508
I1
aI0
aI0
aI0
aa(lp509
I1
aI0
aI0
aI0
aa(lp510
I4
aI0
aI0
aI0
aa(lp511
I4
aI0
aI0
aI0
aa(lp512
I6
aI0
aI0
aI0
aa(lp513
I4
aI0
aI0
aI0
aa(lp514
I1
aI0
aI0
aI0
aa(lp515
I3
aI0
aI0
aI0
aa(lp516
I1
aI0
aI0
aI0
aa(lp517
I4
aI0
aI0
aI0
aa(lp518
I1
aI0
aI0
aI0
aa(lp519
I5
aI0
aI0
aI0
aa(lp520
I2
aI0
aI0
aI0
aa(lp521
I1
aI0
aI0
aI0
aa(lp522
I5
aI0
aI0
aI0
aa(lp523
I9
aI0
aI0
aI0
aa(lp524
I3
aI0
aI0
aI0
aa(lp525
I5
aI0
aI0
aI0
aa(lp526
I2
aI0
aI0
aI0
aa(lp527
I1
aI0
aI0
aI0
aa(lp528
I2
aI0
aI0
aI0
aa(lp529
I2
aI0
aI0
aI0
aa(lp530
I2
aI0
aI0
aI0
aa(lp531
I1
aI0
aI0
aI0
aa(lp532
I3
aI0
aI0
aI0
aa(lp533
I3
aI0
aI0
aI0
aa(lp534
I1
aI0
aI0
aI0
aa(lp535
I1
aI0
aI0
aI0
aa(lp536
I4
aI0
aI0
aI0
aa(lp537
I5
aI0
aI0
aI0
aa(lp538
I6
aI0
aI0
aI0
aa(lp539
I3
aI0
aI0
aI0
aa(lp540
I8
aI0
aI0
aI0
aa(lp541
I8
aI0
aI0
aI0
aa(lp542
I1
aI0
aI0
aI0
aa(lp543
I1
aI0
aI0
aI0
aa(lp544
I11
aI0
aI0
aI0
aa(lp545
I10
aI0
aI0
aI0
aa(lp546
I1
aI0
aI0
aI0
aa(lp547
I1
aI0
aI0
aI0
aa(lp548
I5
aI0
aI0
aI0
aa(lp549
I4
aI0
aI0
aI0
aa(lp550
I10
aI0
aI0
aI0
aa(lp551
I2
aI0
aI0
aI0
aa(lp552
I3
aI0
aI0
aI0
aa(lp553
I6
aI0
aI0
aI0
aa(lp554
I3
aI0
aI0
aI0
aa(lp555
I1
aI0
aI0
aI0
aa(lp556
I1
aI0
aI0
aI0
aa(lp557
I12
aI0
aI0
aI0
aa(lp558
I10
aI0
aI0
aI0
aa(lp559
I6
aI0
aI0
aI0
aa(lp560
I3
aI0
aI0
aI0
aa(lp561
I2
aI0
aI0
aI0
aa(lp562
I8
aI0
aI0
aI0
aa(lp563
I1
aI0
aI0
aI0
aa(lp564
I6
aI0
aI0
aI0
aa(lp565
I2
aI0
aI0
aI0
aa(lp566
I8
aI0
aI0
aI0
aa(lp567
I2
aI0
aI0
aI0
aa(lp568
I5
aI0
aI0
aI0
aa(lp569
I3
aI0
aI0
aI0
aa(lp570
I1
aI0
aI0
aI0
aa(lp571
I13
aI0
aI0
aI0
aa(lp572
I7
aI0
aI0
aI0
aa(lp573
I3
aI0
aI0
aI0
aa(lp574
I5
aI0
aI0
aI0
aa(lp575
I3
aI0
aI0
aI0
aa(lp576
I5
aI0
aI0
aI0
aa(lp577
I7
aI0
aI0
aI0
aa(lp578
I6
aI0
aI0
aI0
aa(lp579
I5
aI0
aI0
aI0
aa(lp580
I4
aI0
aI0
aI0
aa(lp581
I2
aI0
aI0
aI0
aa(lp582
I1
aI0
aI0
aI0
aa(lp583
I2
aI0
aI0
aI0
aa(lp584
I3
aI0
aI0
aI0
aa(lp585
I9
aI0
aI0
aI0
aa(lp586
I5
aI0
aI0
aI0
aa(lp587
I6
aI0
aI0
aI0
aa(lp588
I5
aI0
aI0
aI0
aa(lp589
I12
aI0
aI0
aI0
aa(lp590
I5
aI0
aI0
aI0
aa(lp591
I8
aI0
aI0
aI0
aa(lp592
I1
aI0
aI0
aI0
aa(lp593
I0
aI0
aI0
aI0
aa(lp594
I2
aI0
aI0
aI0
aa(lp595
I4
aI0
aI0
aI0
aa(lp596
I4
aI0
aI0
aI0
aa(lp597
I2
aI0
aI0
aI0
aa(lp598
I0
aI0
aI0
aI0
aa(lp599
I2
aI0
aI0
aI0
aa(lp600
I0
aI0
aI0
aI0
aa(lp601
I1
aI0
aI0
aI0
aa(lp602
I1
aI0
aI0
aI0
aa(lp603
I1
aI0
aI0
aI0
aa(lp604
I1
aI0
aI0
aI0
aa(lp605
I2
aI0
aI0
aI0
aa(lp606
I1
aI0
aI0
aI0
aa(lp607
I0
aI0
aI0
aI0
aa(lp608
I3
aI0
aI0
aI0
aa(lp609
I1
aI0
aI0
aI0
aa(lp610
I5
aI0
aI0
aI0
aa(lp611
I3
aI0
aI0
aI0
aa(lp612
I2
aI0
aI0
aI0
aa(lp613
I3
aI0
aI0
aI0
aa(lp614
I2
aI0
aI0
aI0
aa(lp615
I4
aI0
aI0
aI0
aa(lp616
I2
aI0
aI0
aI0
aa(lp617
I1
aI0
aI0
aI0
aa(lp618
I2
aI0
aI0
aI0
aa(lp619
I1
aI0
aI0
aI0
aa(lp620
I9
aI0
aI0
aI0
aa(lp621
I4
aI0
aI0
aI0
aa(lp622
I2
aI0
aI0
aI0
aa(lp623
I1
aI0
aI0
aI0
aa(lp624
I9
aI0
aI0
aI0
aa(lp625
I2
aI0
aI0
aI0
aa(lp626
I1
aI0
aI0
aI0
aa(lp627
I1
aI0
aI0
aI0
aa(lp628
I1
aI0
aI0
aI0
aa(lp629
I1
aI0
aI0
aI0
aa(lp630
I7
aI0
aI0
aI0
aa(lp631
I2
aI0
aI0
aI0
aa(lp632
I4
aI0
aI0
aI0
aa(lp633
I4
aI0
aI0
aI0
aa(lp634
I2
aI0
aI0
aI0
aa(lp635
I1
aI0
aI0
aI0
aa(lp636
I1
aI0
aI0
aI0
aa(lp637
I6
aI0
aI0
aI0
aa(lp638
I1
aI0
aI0
aI0
aa(lp639
I3
aI0
aI0
aI0
aa(lp640
I2
aI0
aI0
aI0
aa(lp641
I1
aI0
aI0
aI0
aa(lp642
I5
aI0
aI0
aI0
aa(lp643
I1
aI0
aI0
aI0
aa(lp644
I1
aI0
aI0
aI0
aa(lp645
I1
aI0
aI0
aI0
aa(lp646
I5
aI0
aI0
aI0
aa(lp647
I1
aI0
aI0
aI0
aa(lp648
I1
aI0
aI0
aI0
aa(lp649
I2
aI0
aI0
aI0
aa(lp650
I9
aI0
aI0
aI0
aa(lp651
I11
aI0
aI0
aI0
aa(lp652
I1
aI0
aI0
aI0
aa(lp653
I3
aI0
aI0
aI0
aa(lp654
I1
aI0
aI0
aI0
aa(lp655
I2
aI0
aI0
aI0
aa(lp656
I3
aI0
aI0
aI0
aa(lp657
I3
aI0
aI0
aI0
aa(lp658
I1
aI0
aI0
aI0
aa(lp659
I5
aI0
aI0
aI0
aa(lp660
I1
aI0
aI0
aI0
aa(lp661
I0
aI0
aI0
aI0
aa(lp662
I3
aI0
aI0
aI0
aa(lp663
I2
aI0
aI0
aI0
aa(lp664
I2
aI0
aI0
aI0
aa(lp665
I2
aI0
aI0
aI0
aa(lp666
I1
aI0
aI0
aI0
aa(lp667
I6
aI0
aI0
aI0
aa(lp668
I1
aI0
aI0
aI0
aa(lp669
I4
aI0
aI0
aI0
aa(lp670
I7
aI0
aI0
aI0
aa(lp671
I1
aI0
aI0
aI0
aa(lp672
I7
aI0
aI0
aI0
aa(lp673
I11
aI0
aI0
aI0
aa(lp674
I2
aI0
aI0
aI0
aa(lp675
I2
aI0
aI0
aI0
aa(lp676
I4
aI0
aI0
aI0
aa(lp677
I6
aI0
aI0
aI0
aa(lp678
I7
aI0
aI0
aI0
aa(lp679
I2
aI0
aI0
aI0
aa(lp680
I4
aI0
aI0
aI0
aa(lp681
I9
aI0
aI0
aI0
aa(lp682
I2
aI0
aI0
aI0
aa(lp683
I6
aI0
aI0
aI0
aa(lp684
I4
aI0
aI0
aI0
aa(lp685
I2
aI0
aI0
aI0
aa(lp686
I4
aI0
aI0
aI0
aa(lp687
I3
aI0
aI0
aI0
aa(lp688
I1
aI0
aI0
aI0
aa(lp689
I1
aI0
aI0
aI0
aa(lp690
I7
aI0
aI0
aI0
aa(lp691
I1
aI0
aI0
aI0
aa(lp692
I16
aI0
aI0
aI0
aa(lp693
I4
aI0
aI0
aI0
aa(lp694
I1
aI0
aI0
aI0
aa(lp695
I6
aI0
aI0
aI0
aa(lp696
I3
aI0
aI0
aI0
aa(lp697
I1
aI0
aI0
aI0
aa(lp698
I1
aI0
aI0
aI0
aa(lp699
I7
aI0
aI0
aI0
aa(lp700
I2
aI0
aI0
aI0
aa(lp701
I2
aI0
aI0
aI0
aa(lp702
I1
aI0
aI0
aI0
aa(lp703
I3
aI0
aI0
aI0
aa(lp704
I2
aI0
aI0
aI0
aa(lp705
I1
aI0
aI0
aI0
aa(lp706
I4
aI0
aI0
aI0
aa(lp707
I9
aI0
aI0
aI0
aa(lp708
I1
aI0
aI0
aI0
aa(lp709
I1
aI0
aI0
aI0
aa(lp710
I5
aI0
aI0
aI0
aa(lp711
I1
aI0
aI0
aI0
aa(lp712
I1
aI0
aI0
aI0
aa(lp713
I8
aI0
aI0
aI0
aa(lp714
I1
aI0
aI0
aI0
aa(lp715
I2
aI0
aI0
aI0
aa(lp716
I1
aI0
aI0
aI0
aa(lp717
I0
aI0
aI0
aI0
aa(lp718
I2
aI0
aI0
aI0
aa(lp719
I2
aI0
aI0
aI0
aa(lp720
I4
aI0
aI0
aI0
aa(lp721
I2
aI0
aI0
aI0
aa(lp722
I5
aI0
aI0
aI0
aa(lp723
I4
aI0
aI0
aI0
aa(lp724
I12
aI0
aI0
aI0
aa(lp725
I3
aI0
aI0
aI0
aa(lp726
I2
aI0
aI0
aI0
aa(lp727
I4
aI0
aI0
aI0
aa(lp728
I2
aI0
aI0
aI0
aa(lp729
I1
aI0
aI0
aI0
aa(lp730
I1
aI0
aI0
aI0
aa(lp731
I9
aI0
aI0
aI0
aa(lp732
I3
aI0
aI0
aI0
aa(lp733
I1
aI0
aI0
aI0
aa(lp734
I1
aI0
aI0
aI0
aa(lp735
I11
aI0
aI0
aI0
aa(lp736
I5
aI0
aI0
aI0
aa(lp737
I1
aI0
aI0
aI0
aa(lp738
I1
aI0
aI0
aI0
aa(lp739
I2
aI0
aI0
aI0
aa(lp740
I3
aI0
aI0
aI0
aa(lp741
I1
aI0
aI0
aI0
aa(lp742
I4
aI0
aI0
aI0
aa(lp743
I3
aI0
aI0
aI0
aa(lp744
I2
aI0
aI0
aI0
aa(lp745
I1
aI0
aI0
aI0
aa(lp746
I2
aI0
aI0
aI0
aa(lp747
I4
aI0
aI0
aI0
aa(lp748
I3
aI0
aI0
aI0
aa(lp749
I1
aI0
aI0
aI0
aa(lp750
I3
aI0
aI0
aI0
aa(lp751
I3
aI0
aI0
aI0
aa(lp752
I2
aI0
aI0
aI0
aa(lp753
I1
aI0
aI0
aI0
aa(lp754
I2
aI0
aI0
aI0
aa(lp755
I1
aI0
aI0
aI0
aa(lp756
I6
aI0
aI0
aI0
aa(lp757
I3
aI0
aI0
aI0
aa(lp758
I1
aI0
aI0
aI0
aa(lp759
I2
aI0
aI0
aI0
aa(lp760
I9
aI0
aI0
aI0
aa(lp761
I1
aI0
aI0
aI0
aa(lp762
I3
aI0
aI0
aI0
aa(lp763
I2
aI0
aI0
aI0
aa(lp764
I14
aI0
aI0
aI0
aa(lp765
I9
aI0
aI0
aI0
aa(lp766
I2
aI0
aI0
aI0
aa(lp767
I8
aI0
aI0
aI0
aa(lp768
I2
aI0
aI0
aI0
aa(lp769
I1
aI0
aI0
aI0
aa(lp770
I2
aI0
aI0
aI0
aa(lp771
I1
aI0
aI0
aI0
aa(lp772
I4
aI0
aI0
aI0
aa(lp773
I5
aI0
aI0
aI0
aa(lp774
I1
aI0
aI0
aI0
aa(lp775
I6
aI0
aI0
aI0
aa(lp776
I8
aI0
aI0
aI0
aa(lp777
I1
aI0
aI0
aI0
aa(lp778
I1
aI0
aI0
aI0
aa(lp779
I2
aI0
aI0
aI0
aa(lp780
I2
aI0
aI0
aI0
aa(lp781
I1
aI0
aI0
aI0
aa(lp782
I3
aI0
aI0
aI0
aa(lp783
I2
aI0
aI0
aI0
aa(lp784
I4
aI0
aI0
aI0
aa(lp785
I0
aI0
aI0
aI0
aa(lp786
I0
aI0
aI0
aI0
aa(lp787
I0
aI0
aI0
aI0
aa(lp788
I0
aI0
aI0
aI0
aa.