(lp1
(lp2
I8
aI0
aI0
aI0
aa(lp3
I4
aI0
aI0
aI0
aa(lp4
I3
aI0
aI0
aI0
aa(lp5
I2
aI0
aI0
aI0
aa(lp6
I3
aI0
aI0
aI0
aa(lp7
I0
aI0
aI0
aI0
aa(lp8
I4
aI0
aI0
aI0
aa(lp9
I3
aI0
aI0
aI0
aa(lp10
I5
aI0
aI0
aI0
aa(lp11
I2
aI0
aI0
aI0
aa(lp12
I4
aI0
aI0
aI0
aa(lp13
I2
aI0
aI0
aI0
aa(lp14
I5
aI0
aI0
aI0
aa(lp15
I4
aI0
aI0
aI0
aa(lp16
I1
aI0
aI0
aI0
aa(lp17
I4
aI0
aI0
aI0
aa(lp18
I4
aI0
aI0
aI0
aa(lp19
I6
aI0
aI0
aI0
aa(lp20
I4
aI0
aI0
aI0
aa(lp21
I2
aI0
aI0
aI0
aa(lp22
I3
aI0
aI0
aI0
aa(lp23
I6
aI0
aI0
aI0
aa(lp24
I5
aI0
aI0
aI0
aa(lp25
I8
aI0
aI0
aI0
aa(lp26
I3
aI0
aI0
aI0
aa(lp27
I4
aI0
aI0
aI0
aa(lp28
I5
aI0
aI0
aI0
aa(lp29
I6
aI0
aI0
aI0
aa(lp30
I5
aI0
aI0
aI0
aa(lp31
I0
aI0
aI0
aI0
aa(lp32
I18
aI0
aI0
aI0
aa(lp33
I4
aI0
aI0
aI0
aa(lp34
I3
aI0
aI0
aI0
aa(lp35
I2
aI0
aI0
aI0
aa(lp36
I2
aI0
aI0
aI0
aa(lp37
I3
aI0
aI0
aI0
aa(lp38
I4
aI0
aI0
aI0
aa(lp39
I4
aI0
aI0
aI0
aa(lp40
I8
aI0
aI0
aI0
aa(lp41
I8
aI0
aI0
aI0
aa(lp42
I6
aI0
aI0
aI0
aa(lp43
I2
aI0
aI0
aI0
aa(lp44
I4
aI0
aI0
aI0
aa(lp45
I1
aI0
aI0
aI0
aa(lp46
I7
aI0
aI0
aI0
aa(lp47
I3
aI0
aI0
aI0
aa(lp48
I0
aI0
aI0
aI0
aa(lp49
I7
aI0
aI0
aI0
aa(lp50
I6
aI0
aI0
aI0
aa(lp51
I0
aI0
aI0
aI0
aa.