(lp1
(lp2
I2
aI0
aI0
aI0
aa(lp3
I4
aI0
aI0
aI0
aa(lp4
I9
aI0
aI0
aI0
aa(lp5
I11
aI0
aI0
aI0
aa(lp6
I6
aI0
aI0
aI0
aa(lp7
I6
aI0
aI0
aI0
aa(lp8
I13
aI0
aI0
aI0
aa(lp9
I11
aI0
aI0
aI0
aa(lp10
I13
aI0
aI0
aI0
aa(lp11
I13
aI0
aI0
aI0
aa(lp12
I5
aI0
aI0
aI0
aa(lp13
I4
aI0
aI0
aI0
aa(lp14
I13
aI0
aI0
aI0
aa(lp15
I13
aI0
aI0
aI0
aa(lp16
I6
aI0
aI0
aI0
aa(lp17
I4
aI0
aI0
aI0
aa(lp18
I13
aI0
aI0
aI0
aa(lp19
I15
aI0
aI0
aI0
aa(lp20
I0
aI0
aI0
aI0
aa(lp21
I7
aI0
aI0
aI0
aa(lp22
I10
aI0
aI0
aI0
aa(lp23
I3
aI0
aI0
aI0
aa(lp24
I1
aI0
aI0
aI0
aa(lp25
I1
aI0
aI0
aI0
aa(lp26
I3
aI0
aI0
aI0
aa(lp27
I4
aI0
aI0
aI0
aa(lp28
I3
aI0
aI0
aI0
aa(lp29
I8
aI0
aI0
aI0
aa(lp30
I1
aI0
aI0
aI0
aa(lp31
I3
aI0
aI0
aI0
aa(lp32
I2
aI0
aI0
aI0
aa(lp33
I4
aI0
aI0
aI0
aa(lp34
I6
aI0
aI0
aI0
aa(lp35
I0
aI0
aI0
aI0
aa(lp36
I0
aI0
aI0
aI0
aa(lp37
I0
aI0
aI0
aI0
aa(lp38
I0
aI0
aI0
aI0
aa(lp39
I0
aI0
aI0
aI0
aa(lp40
I0
aI0
aI0
aI0
aa(lp41
I0
aI0
aI0
aI0
aa.