(lp1
(lp2
I2
aI0
aI0
aI0
aa(lp3
I2
aI0
aI0
aI0
aa(lp4
I3
aI0
aI0
aI0
aa(lp5
I8
aI0
aI0
aI0
aa(lp6
I6
aI0
aI0
aI0
aa(lp7
I3
aI0
aI0
aI0
aa(lp8
I8
aI0
aI0
aI0
aa(lp9
I5
aI0
aI0
aI0
aa(lp10
I8
aI0
aI0
aI0
aa(lp11
I5
aI0
aI0
aI0
aa(lp12
I2
aI0
aI0
aI0
aa(lp13
I4
aI0
aI0
aI0
aa(lp14
I5
aI0
aI0
aI0
aa(lp15
I8
aI0
aI0
aI0
aa(lp16
I4
aI0
aI0
aI0
aa(lp17
I4
aI0
aI0
aI0
aa(lp18
I1
aI0
aI0
aI0
aa(lp19
I4
aI0
aI0
aI0
aa(lp20
I4
aI0
aI0
aI0
aa(lp21
I2
aI0
aI0
aI0
aa(lp22
I5
aI0
aI0
aI0
aa(lp23
I4
aI0
aI0
aI0
aa(lp24
I12
aI0
aI0
aI0
aa(lp25
I9
aI0
aI0
aI0
aa(lp26
I3
aI0
aI0
aI0
aa(lp27
I4
aI0
aI0
aI0
aa(lp28
I4
aI0
aI0
aI0
aa(lp29
I1
aI0
aI0
aI0
aa(lp30
I2
aI0
aI0
aI0
aa(lp31
I1
aI0
aI0
aI0
aa(lp32
I2
aI0
aI0
aI0
aa(lp33
I1
aI0
aI0
aI0
aa(lp34
I4
aI0
aI0
aI0
aa(lp35
I3
aI0
aI0
aI0
aa(lp36
I6
aI0
aI0
aI0
aa(lp37
I3
aI0
aI0
aI0
aa(lp38
I7
aI0
aI0
aI0
aa(lp39
I2
aI0
aI0
aI0
aa(lp40
I3
aI0
aI0
aI0
aa(lp41
I2
aI0
aI0
aI0
aa(lp42
I7
aI0
aI0
aI0
aa(lp43
I4
aI0
aI0
aI0
aa(lp44
I1
aI0
aI0
aI0
aa(lp45
I1
aI0
aI0
aI0
aa(lp46
I7
aI0
aI0
aI0
aa(lp47
I9
aI0
aI0
aI0
aa(lp48
I9
aI0
aI0
aI0
aa(lp49
I3
aI0
aI0
aI0
aa(lp50
I6
aI0
aI0
aI0
aa(lp51
I3
aI0
aI0
aI0
aa(lp52
I6
aI0
aI0
aI0
aa(lp53
I0
aI0
aI0
aI0
aa(lp54
I0
aI0
aI0
aI0
aa(lp55
I0
aI0
aI0
aI0
aa(lp56
I0
aI0
aI0
aI0
aa(lp57
I0
aI0
aI0
aI0
aa(lp58
I0
aI0
aI0
aI0
aa(lp59
I0
aI0
aI0
aI0
aa(lp60
I0
aI0
aI0
aI0
aa(lp61
I0
aI0
aI0
aI0
aa(lp62
I0
aI0
aI0
aI0
aa(lp63
I0
aI0
aI0
aI0
aa(lp64
I0
aI0
aI0
aI0
aa.