(lp1
(lp2
I7
aI0
aI0
aI0
aa(lp3
I9
aI0
aI0
aI0
aa(lp4
I3
aI0
aI0
aI0
aa(lp5
I6
aI0
aI0
aI0
aa(lp6
I8
aI0
aI0
aI0
aa(lp7
I13
aI0
aI0
aI0
aa(lp8
I4
aI0
aI0
aI0
aa(lp9
I10
aI0
aI0
aI0
aa(lp10
I7
aI0
aI0
aI0
aa(lp11
I11
aI0
aI0
aI0
aa(lp12
I2
aI0
aI0
aI0
aa(lp13
I4
aI0
aI0
aI0
aa(lp14
I1
aI0
aI0
aI0
aa(lp15
I1
aI0
aI0
aI0
aa(lp16
I3
aI0
aI0
aI0
aa(lp17
I20
aI0
aI0
aI0
aa(lp18
I9
aI0
aI0
aI0
aa(lp19
I7
aI0
aI0
aI0
aa(lp20
I5
aI0
aI0
aI0
aa(lp21
I5
aI0
aI0
aI0
aa(lp22
I5
aI0
aI0
aI0
aa(lp23
I4
aI0
aI0
aI0
aa(lp24
I13
aI0
aI0
aI0
aa(lp25
I5
aI0
aI0
aI0
aa(lp26
I1
aI0
aI0
aI0
aa(lp27
I8
aI0
aI0
aI0
aa(lp28
I5
aI0
aI0
aI0
aa(lp29
I2
aI0
aI0
aI0
aa(lp30
I22
aI0
aI0
aI0
aa(lp31
I4
aI0
aI0
aI0
aa(lp32
I1
aI0
aI0
aI0
aa(lp33
I9
aI0
aI0
aI0
aa(lp34
I3
aI0
aI0
aI0
aa(lp35
I1
aI0
aI0
aI0
aa(lp36
I1
aI0
aI0
aI0
aa(lp37
I1
aI0
aI0
aI0
aa(lp38
I6
aI0
aI0
aI0
aa(lp39
I1
aI0
aI0
aI0
aa(lp40
I4
aI0
aI0
aI0
aa(lp41
I8
aI0
aI0
aI0
aa(lp42
I7
aI0
aI0
aI0
aa(lp43
I2
aI0
aI0
aI0
aa(lp44
I2
aI0
aI0
aI0
aa(lp45
I1
aI0
aI0
aI0
aa(lp46
I5
aI0
aI0
aI0
aa(lp47
I6
aI0
aI0
aI0
aa(lp48
I1
aI0
aI0
aI0
aa(lp49
I5
aI0
aI0
aI0
aa(lp50
I1
aI0
aI0
aI0
aa(lp51
I3
aI0
aI0
aI0
aa(lp52
I2
aI0
aI0
aI0
aa(lp53
I6
aI0
aI0
aI0
aa(lp54
I3
aI0
aI0
aI0
aa(lp55
I9
aI0
aI0
aI0
aa(lp56
I4
aI0
aI0
aI0
aa(lp57
I7
aI0
aI0
aI0
aa(lp58
I3
aI0
aI0
aI0
aa(lp59
I2
aI0
aI0
aI0
aa(lp60
I3
aI0
aI0
aI0
aa(lp61
I4
aI0
aI0
aI0
aa(lp62
I1
aI0
aI0
aI0
aa(lp63
I4
aI0
aI0
aI0
aa(lp64
I3
aI0
aI0
aI0
aa(lp65
I3
aI0
aI0
aI0
aa(lp66
I6
aI0
aI0
aI0
aa(lp67
I2
aI0
aI0
aI0
aa(lp68
I5
aI0
aI0
aI0
aa(lp69
I2
aI0
aI0
aI0
aa(lp70
I5
aI0
aI0
aI0
aa(lp71
I1
aI0
aI0
aI0
aa(lp72
I9
aI0
aI0
aI0
aa(lp73
I7
aI0
aI0
aI0
aa(lp74
I1
aI0
aI0
aI0
aa(lp75
I3
aI0
aI0
aI0
aa(lp76
I5
aI0
aI0
aI0
aa(lp77
I3
aI0
aI0
aI0
aa(lp78
I5
aI0
aI0
aI0
aa(lp79
I3
aI0
aI0
aI0
aa(lp80
I4
aI0
aI0
aI0
aa(lp81
I5
aI0
aI0
aI0
aa(lp82
I5
aI0
aI0
aI0
aa(lp83
I0
aI0
aI0
aI0
aa(lp84
I7
aI0
aI0
aI0
aa(lp85
I5
aI0
aI0
aI0
aa(lp86
I4
aI0
aI0
aI0
aa(lp87
I3
aI0
aI0
aI0
aa(lp88
I3
aI0
aI0
aI0
aa(lp89
I4
aI0
aI0
aI0
aa(lp90
I5
aI0
aI0
aI0
aa(lp91
I1
aI0
aI0
aI0
aa(lp92
I5
aI0
aI0
aI0
aa(lp93
I4
aI0
aI0
aI0
aa(lp94
I2
aI0
aI0
aI0
aa(lp95
I5
aI0
aI0
aI0
aa(lp96
I3
aI0
aI0
aI0
aa(lp97
I1
aI0
aI0
aI0
aa(lp98
I1
aI0
aI0
aI0
aa(lp99
I12
aI0
aI0
aI0
aa(lp100
I4
aI0
aI0
aI0
aa(lp101
I2
aI0
aI0
aI0
aa(lp102
I4
aI0
aI0
aI0
aa(lp103
I5
aI0
aI0
aI0
aa(lp104
I2
aI0
aI0
aI0
aa(lp105
I11
aI0
aI0
aI0
aa(lp106
I5
aI0
aI0
aI0
aa(lp107
I1
aI0
aI0
aI0
aa(lp108
I2
aI0
aI0
aI0
aa(lp109
I12
aI0
aI0
aI0
aa(lp110
I2
aI0
aI0
aI0
aa(lp111
I3
aI0
aI0
aI0
aa(lp112
I2
aI0
aI0
aI0
aa(lp113
I4
aI0
aI0
aI0
aa(lp114
I6
aI0
aI0
aI0
aa(lp115
I1
aI0
aI0
aI0
aa(lp116
I9
aI0
aI0
aI0
aa(lp117
I3
aI0
aI0
aI0
aa(lp118
I5
aI0
aI0
aI0
aa(lp119
I8
aI0
aI0
aI0
aa(lp120
I13
aI0
aI0
aI0
aa(lp121
I7
aI0
aI0
aI0
aa(lp122
I6
aI0
aI0
aI0
aa(lp123
I2
aI0
aI0
aI0
aa(lp124
I1
aI0
aI0
aI0
aa(lp125
I2
aI0
aI0
aI0
aa(lp126
I5
aI0
aI0
aI0
aa(lp127
I5
aI0
aI0
aI0
aa(lp128
I9
aI0
aI0
aI0
aa(lp129
I6
aI0
aI0
aI0
aa(lp130
I2
aI0
aI0
aI0
aa(lp131
I8
aI0
aI0
aI0
aa(lp132
I3
aI0
aI0
aI0
aa(lp133
I5
aI0
aI0
aI0
aa(lp134
I2
aI0
aI0
aI0
aa(lp135
I2
aI0
aI0
aI0
aa(lp136
I9
aI0
aI0
aI0
aa(lp137
I1
aI0
aI0
aI0
aa(lp138
I5
aI0
aI0
aI0
aa(lp139
I8
aI0
aI0
aI0
aa(lp140
I1
aI0
aI0
aI0
aa(lp141
I1
aI0
aI0
aI0
aa(lp142
I2
aI0
aI0
aI0
aa(lp143
I1
aI0
aI0
aI0
aa(lp144
I6
aI0
aI0
aI0
aa(lp145
I3
aI0
aI0
aI0
aa(lp146
I8
aI0
aI0
aI0
aa(lp147
I4
aI0
aI0
aI0
aa(lp148
I5
aI0
aI0
aI0
aa(lp149
I5
aI0
aI0
aI0
aa(lp150
I1
aI0
aI0
aI0
aa(lp151
I8
aI0
aI0
aI0
aa(lp152
I7
aI0
aI0
aI0
aa(lp153
I9
aI0
aI0
aI0
aa(lp154
I6
aI0
aI0
aI0
aa(lp155
I1
aI0
aI0
aI0
aa(lp156
I8
aI0
aI0
aI0
aa(lp157
I3
aI0
aI0
aI0
aa(lp158
I2
aI0
aI0
aI0
aa(lp159
I1
aI0
aI0
aI0
aa(lp160
I1
aI0
aI0
aI0
aa(lp161
I1
aI0
aI0
aI0
aa(lp162
I6
aI0
aI0
aI0
aa(lp163
I2
aI0
aI0
aI0
aa(lp164
I3
aI0
aI0
aI0
aa(lp165
I3
aI0
aI0
aI0
aa(lp166
I8
aI0
aI0
aI0
aa(lp167
I3
aI0
aI0
aI0
aa(lp168
I1
aI0
aI0
aI0
aa(lp169
I4
aI0
aI0
aI0
aa(lp170
I5
aI0
aI0
aI0
aa.