(lp1
(lp2
I5
aI0
aI0
aI0
aa(lp3
I1
aI0
aI0
aI0
aa(lp4
I4
aI0
aI0
aI0
aa(lp5
I6
aI0
aI0
aI0
aa(lp6
I6
aI0
aI0
aI0
aa(lp7
I2
aI0
aI0
aI0
aa(lp8
I4
aI0
aI0
aI0
aa(lp9
I1
aI0
aI0
aI0
aa(lp10
I3
aI0
aI0
aI0
aa(lp11
I0
aI0
aI0
aI0
aa(lp12
I2
aI0
aI0
aI0
aa(lp13
I2
aI0
aI0
aI0
aa(lp14
I3
aI0
aI0
aI0
aa(lp15
I4
aI0
aI0
aI0
aa(lp16
I1
aI0
aI0
aI0
aa(lp17
I3
aI0
aI0
aI0
aa(lp18
I9
aI0
aI0
aI0
aa(lp19
I0
aI0
aI0
aI0
aa(lp20
I2
aI0
aI0
aI0
aa(lp21
I0
aI0
aI0
aI0
aa(lp22
I4
aI0
aI0
aI0
aa(lp23
I2
aI0
aI0
aI0
aa(lp24
I6
aI0
aI0
aI0
aa(lp25
I3
aI0
aI0
aI0
aa(lp26
I11
aI0
aI0
aI0
aa(lp27
I7
aI0
aI0
aI0
aa(lp28
I4
aI0
aI0
aI0
aa(lp29
I0
aI0
aI0
aI0
aa(lp30
I3
aI0
aI0
aI0
aa(lp31
I0
aI0
aI0
aI0
aa(lp32
I1
aI0
aI0
aI0
aa(lp33
I0
aI0
aI0
aI0
aa(lp34
I1
aI0
aI0
aI0
aa(lp35
I5
aI0
aI0
aI0
aa(lp36
I4
aI0
aI0
aI0
aa(lp37
I3
aI0
aI0
aI0
aa(lp38
I3
aI0
aI0
aI0
aa(lp39
I1
aI0
aI0
aI0
aa(lp40
I2
aI0
aI0
aI0
aa.