(lp1
(lp2
I2
aI0
aI0
aI0
aa(lp3
I0
aI0
aI0
aI0
aa(lp4
I4
aI0
aI0
aI0
aa(lp5
I8
aI0
aI0
aI0
aa(lp6
I2
aI0
aI0
aI0
aa(lp7
I4
aI0
aI0
aI0
aa(lp8
I5
aI0
aI0
aI0
aa(lp9
I9
aI0
aI0
aI0
aa(lp10
I0
aI0
aI0
aI0
aa(lp11
I1
aI0
aI0
aI0
aa(lp12
I1
aI0
aI0
aI0
aa(lp13
I3
aI0
aI0
aI0
aa(lp14
I3
aI0
aI0
aI0
aa(lp15
I5
aI0
aI0
aI0
aa(lp16
I5
aI0
aI0
aI0
aa(lp17
I1
aI0
aI0
aI0
aa(lp18
I18
aI0
aI0
aI0
aa(lp19
I6
aI0
aI0
aI0
aa(lp20
I0
aI0
aI0
aI0
aa(lp21
I3
aI0
aI0
aI0
aa(lp22
I2
aI0
aI0
aI0
aa(lp23
I4
aI0
aI0
aI0
aa(lp24
I3
aI0
aI0
aI0
aa(lp25
I4
aI0
aI0
aI0
aa(lp26
I1
aI0
aI0
aI0
aa(lp27
I10
aI0
aI0
aI0
aa(lp28
I6
aI0
aI0
aI0
aa(lp29
I7
aI0
aI0
aI0
aa(lp30
I3
aI0
aI0
aI0
aa(lp31
I0
aI0
aI0
aI0
aa(lp32
I8
aI0
aI0
aI0
aa(lp33
I13
aI0
aI0
aI0
aa(lp34
I3
aI0
aI0
aI0
aa(lp35
I3
aI0
aI0
aI0
aa(lp36
I6
aI0
aI0
aI0
aa(lp37
I6
aI0
aI0
aI0
aa(lp38
I1
aI0
aI0
aI0
aa(lp39
I4
aI0
aI0
aI0
aa(lp40
I3
aI0
aI0
aI0
aa(lp41
I2
aI0
aI0
aI0
aa(lp42
I4
aI0
aI0
aI0
aa(lp43
I7
aI0
aI0
aI0
aa(lp44
I1
aI0
aI0
aI0
aa(lp45
I14
aI0
aI0
aI0
aa(lp46
I3
aI0
aI0
aI0
aa(lp47
I1
aI0
aI0
aI0
aa(lp48
I2
aI0
aI0
aI0
aa(lp49
I1
aI0
aI0
aI0
aa(lp50
I2
aI0
aI0
aI0
aa(lp51
I5
aI0
aI0
aI0
aa(lp52
I10
aI0
aI0
aI0
aa(lp53
I8
aI0
aI0
aI0
aa(lp54
I2
aI0
aI0
aI0
aa(lp55
I5
aI0
aI0
aI0
aa(lp56
I4
aI0
aI0
aI0
aa(lp57
I2
aI0
aI0
aI0
aa(lp58
I1
aI0
aI0
aI0
aa(lp59
I8
aI0
aI0
aI0
aa(lp60
I9
aI0
aI0
aI0
aa(lp61
I9
aI0
aI0
aI0
aa(lp62
I12
aI0
aI0
aI0
aa(lp63
I1
aI0
aI0
aI0
aa(lp64
I6
aI0
aI0
aI0
aa(lp65
I2
aI0
aI0
aI0
aa(lp66
I1
aI0
aI0
aI0
aa.