(lp1
(lp2
I4
aI0
aI0
aI0
aa(lp3
I2
aI0
aI0
aI0
aa(lp4
I1
aI0
aI0
aI0
aa(lp5
I13
aI0
aI0
aI0
aa(lp6
I15
aI0
aI0
aI0
aa(lp7
I16
aI0
aI0
aI0
aa(lp8
I2
aI0
aI0
aI0
aa(lp9
I0
aI0
aI0
aI0
aa(lp10
I0
aI0
aI0
aI0
aa(lp11
I0
aI0
aI0
aI0
aa(lp12
I0
aI0
aI0
aI0
aa(lp13
I0
aI0
aI0
aI0
aa(lp14
I0
aI0
aI0
aI0
aa(lp15
I0
aI0
aI0
aI0
aa(lp16
I0
aI0
aI0
aI0
aa(lp17
I0
aI0
aI0
aI0
aa(lp18
I0
aI0
aI0
aI0
aa(lp19
I0
aI0
aI0
aI0
aa(lp20
I0
aI0
aI0
aI0
aa(lp21
I0
aI0
aI0
aI0
aa(lp22
I0
aI0
aI0
aI0
aa.